; Function Attrs: mustprogress uwtable
define noundef i32 @_ZN6icu_7514SearchIterator4lastER10UErrorCode(ptr noundef nonnull align 8 dereferenceable(88) %this, ptr noundef nonnull align 4 dereferenceable(4) %status) local_unnamed_addr #0 align 2 {
entry:
  %0 = load i32, ptr %status, align 4
  %cmp.i = icmp slt i32 %0, 1
  br i1 %cmp.i, label %if.end, label %return

if.end:                                           ; preds = %entry
  %m_search_ = getelementptr inbounds i8, ptr %this, i64 8
  %1 = load ptr, ptr %m_search_, align 8
  %textLength = getelementptr inbounds i8, ptr %1, i64 8
  %2 = load i32, ptr %textLength, align 8
  %vtable = load ptr, ptr %this, align 8
  %vfn = getelementptr inbounds i8, ptr %vtable, i64 24
  %3 = load ptr, ptr %vfn, align 8
  tail call void %3(ptr noundef nonnull align 8 dereferenceable(88) %this, i32 noundef %2, ptr noundef nonnull align 4 dereferenceable(4) %status)
  %4 = load ptr, ptr %m_search_, align 8
  %textLength3 = getelementptr inbounds i8, ptr %4, i64 8
  %5 = load i32, ptr %textLength3, align 8
  %vtable4 = load ptr, ptr %this, align 8
  %vfn5 = getelementptr inbounds i8, ptr %vtable4, i64 88
  %6 = load ptr, ptr %vfn5, align 8
  %call6 = tail call noundef i32 %6(ptr noundef nonnull align 8 dereferenceable(88) %this, i32 noundef %5, ptr noundef nonnull align 4 dereferenceable(4) %status)
  br label %return

return:                                           ; preds = %entry, %if.end
  %retval.0 = phi i32 [ %call6, %if.end ], [ -1, %entry ]
  ret i32 %retval.0
}